target datalayout = "e-m:e-p270:32:32-p271:32:32-p272:64:64-i64:64-i128:128-f80:128-n8:16:32:64-S128"
target triple = "x86_64-pc-linux-gnu"

; Function Attrs: nounwind sspstrong uwtable
define internal i32 @mbc_enc_len(ptr noundef %0, ptr noundef %1, ptr noundef %2) #0 {
  %4 = alloca i32, align 4
  %5 = alloca ptr, align 8
  %6 = alloca ptr, align 8
  %7 = alloca ptr, align 8
  %8 = alloca i32, align 4
  %9 = alloca i32, align 4
  %10 = alloca i32, align 4
  store ptr %0, ptr %5, align 8, !tbaa !13
  store ptr %1, ptr %6, align 8, !tbaa !13
  store ptr %2, ptr %7, align 8, !tbaa !14
  call void @llvm.lifetime.start.p0(i64 4, ptr %8) #4
  %11 = load ptr, ptr %5, align 8, !tbaa !13
  %12 = getelementptr inbounds nuw i8, ptr %11, i32 1
  store ptr %12, ptr %5, align 8, !tbaa !13
  %13 = load i8, ptr %11, align 1, !tbaa !16
  %14 = zext i8 %13 to i32
  store i32 %14, ptr %8, align 4, !tbaa !17
  call void @llvm.lifetime.start.p0(i64 4, ptr %9) #4
  %15 = load i32, ptr %8, align 4, !tbaa !17
  %16 = sext i32 %15 to i64
  %17 = getelementptr inbounds [256 x i8], ptr @trans, i64 0, i64 %16
  %18 = load i8, ptr %17, align 1, !tbaa !16
  %19 = sext i8 %18 to i32
  store i32 %19, ptr %9, align 4, !tbaa !17
  %20 = load i32, ptr %9, align 4, !tbaa !17
  %21 = icmp slt i32 %20, 0
  br i1 %21, label %22, label %26

22:                                               ; preds = %3
  %23 = load i32, ptr %9, align 4, !tbaa !17
  %24 = icmp eq i32 %23, -1
  %25 = select i1 %24, i32 1, i32 -1
  store i32 %25, ptr %4, align 4
  store i32 1, ptr %10, align 4
  br label %79

26:                                               ; preds = %3
  %27 = load ptr, ptr %5, align 8, !tbaa !13
  %28 = load ptr, ptr %6, align 8, !tbaa !13
  %29 = icmp eq ptr %27, %28
  br i1 %29, label %30, label %37

30:                                               ; preds = %26
  %31 = load i32, ptr %8, align 4, !tbaa !17
  %32 = sext i32 %31 to i64
  %33 = getelementptr inbounds [256 x i32], ptr @EncLen_EUCJP, i64 0, i64 %32
  %34 = load i32, ptr %33, align 4, !tbaa !17
  %35 = sub nsw i32 %34, 1
  %36 = sub nsw i32 -1, %35
  store i32 %36, ptr %4, align 4
  store i32 1, ptr %10, align 4
  br label %79

37:                                               ; preds = %26
  %38 = load i32, ptr %9, align 4, !tbaa !17
  %39 = sext i32 %38 to i64
  %40 = getelementptr inbounds [3 x [256 x i8]], ptr @trans, i64 0, i64 %39
  %41 = load ptr, ptr %5, align 8, !tbaa !13
  %42 = getelementptr inbounds nuw i8, ptr %41, i32 1
  store ptr %42, ptr %5, align 8, !tbaa !13
  %43 = load i8, ptr %41, align 1, !tbaa !16
  %44 = zext i8 %43 to i64
  %45 = getelementptr inbounds nuw [256 x i8], ptr %40, i64 0, i64 %44
  %46 = load i8, ptr %45, align 1, !tbaa !16
  %47 = sext i8 %46 to i32
  store i32 %47, ptr %9, align 4, !tbaa !17
  %48 = load i32, ptr %9, align 4, !tbaa !17
  %49 = icmp slt i32 %48, 0
  br i1 %49, label %50, label %54

50:                                               ; preds = %37
  %51 = load i32, ptr %9, align 4, !tbaa !17
  %52 = icmp eq i32 %51, -1
  %53 = select i1 %52, i32 2, i32 -1
  store i32 %53, ptr %4, align 4
  store i32 1, ptr %10, align 4
  br label %79

54:                                               ; preds = %37
  %55 = load ptr, ptr %5, align 8, !tbaa !13
  %56 = load ptr, ptr %6, align 8, !tbaa !13
  %57 = icmp eq ptr %55, %56
  br i1 %57, label %58, label %65

58:                                               ; preds = %54
  %59 = load i32, ptr %8, align 4, !tbaa !17
  %60 = sext i32 %59 to i64
  %61 = getelementptr inbounds [256 x i32], ptr @EncLen_EUCJP, i64 0, i64 %60
  %62 = load i32, ptr %61, align 4, !tbaa !17
  %63 = sub nsw i32 %62, 2
  %64 = sub nsw i32 -1, %63
  store i32 %64, ptr %4, align 4
  store i32 1, ptr %10, align 4
  br label %79

65:                                               ; preds = %54
  %66 = load i32, ptr %9, align 4, !tbaa !17
  %67 = sext i32 %66 to i64
  %68 = getelementptr inbounds [3 x [256 x i8]], ptr @trans, i64 0, i64 %67
  %69 = load ptr, ptr %5, align 8, !tbaa !13
  %70 = getelementptr inbounds nuw i8, ptr %69, i32 1
  store ptr %70, ptr %5, align 8, !tbaa !13
  %71 = load i8, ptr %69, align 1, !tbaa !16
  %72 = zext i8 %71 to i64
  %73 = getelementptr inbounds nuw [256 x i8], ptr %68, i64 0, i64 %72
  %74 = load i8, ptr %73, align 1, !tbaa !16
  %75 = sext i8 %74 to i32
  store i32 %75, ptr %9, align 4, !tbaa !17
  %76 = load i32, ptr %9, align 4, !tbaa !17
  %77 = icmp eq i32 %76, -1
  %78 = select i1 %77, i32 3, i32 -1
  store i32 %78, ptr %4, align 4
  store i32 1, ptr %10, align 4
  br label %79

79:                                               ; preds = %65, %58, %50, %30, %22
  call void @llvm.lifetime.end.p0(i64 4, ptr %9) #4
  call void @llvm.lifetime.end.p0(i64 4, ptr %8) #4
  %80 = load i32, ptr %4, align 4
  ret i32 %80
}

; Function Attrs: nounwind sspstrong uwtable
define internal ptr @left_adjust_char_head(ptr noundef %0, ptr noundef %1, ptr noundef %2, ptr noundef %3) #0 {
  %5 = alloca ptr, align 8
  %6 = alloca ptr, align 8
  %7 = alloca ptr, align 8
  %8 = alloca ptr, align 8
  %9 = alloca ptr, align 8
  %10 = alloca ptr, align 8
  %11 = alloca i32, align 4
  %12 = alloca i32, align 4
  store ptr %0, ptr %6, align 8, !tbaa !13
  store ptr %1, ptr %7, align 8, !tbaa !13
  store ptr %2, ptr %8, align 8, !tbaa !13
  store ptr %3, ptr %9, align 8, !tbaa !14
  call void @llvm.lifetime.start.p0(i64 8, ptr %10) #4
  call void @llvm.lifetime.start.p0(i64 4, ptr %11) #4
  %13 = load ptr, ptr %7, align 8, !tbaa !13
  %14 = load ptr, ptr %6, align 8, !tbaa !13
  %15 = icmp ule ptr %13, %14
  br i1 %15, label %16, label %18

16:                                               ; preds = %4
  %17 = load ptr, ptr %7, align 8, !tbaa !13
  store ptr %17, ptr %5, align 8
  store i32 1, ptr %12, align 4
  br label %63

18:                                               ; preds = %4
  %19 = load ptr, ptr %7, align 8, !tbaa !13
  store ptr %19, ptr %10, align 8, !tbaa !13
  br label %20

20:                                               ; preds = %34, %18
  %21 = load ptr, ptr %10, align 8, !tbaa !13
  %22 = load i8, ptr %21, align 1, !tbaa !16
  %23 = zext i8 %22 to i32
  %24 = sub nsw i32 %23, 161
  %25 = trunc i32 %24 to i8
  %26 = zext i8 %25 to i32
  %27 = icmp sgt i32 %26, 93
  br i1 %27, label %32, label %28

28:                                               ; preds = %20
  %29 = load ptr, ptr %10, align 8, !tbaa !13
  %30 = load ptr, ptr %6, align 8, !tbaa !13
  %31 = icmp ugt ptr %29, %30
  br label %32

32:                                               ; preds = %28, %20
  %33 = phi i1 [ false, %20 ], [ %31, %28 ]
  br i1 %33, label %34, label %37

34:                                               ; preds = %32
  %35 = load ptr, ptr %10, align 8, !tbaa !13
  %36 = getelementptr inbounds i8, ptr %35, i32 -1
  store ptr %36, ptr %10, align 8, !tbaa !13
  br label %20, !llvm.loop !36

37:                                               ; preds = %32
  %38 = load ptr, ptr %10, align 8, !tbaa !13
  %39 = load ptr, ptr %8, align 8, !tbaa !13
  %40 = load ptr, ptr %9, align 8, !tbaa !14
  %41 = call i32 @mbc_enc_len(ptr noundef %38, ptr noundef %39, ptr noundef %40)
  store i32 %41, ptr %11, align 4, !tbaa !17
  %42 = load ptr, ptr %10, align 8, !tbaa !13
  %43 = load i32, ptr %11, align 4, !tbaa !17
  %44 = sext i32 %43 to i64
  %45 = getelementptr inbounds i8, ptr %42, i64 %44
  %46 = load ptr, ptr %7, align 8, !tbaa !13
  %47 = icmp ugt ptr %45, %46
  br i1 %47, label %48, label %50

48:                                               ; preds = %37
  %49 = load ptr, ptr %10, align 8, !tbaa !13
  store ptr %49, ptr %5, align 8
  store i32 1, ptr %12, align 4
  br label %63

50:                                               ; preds = %37
  %51 = load i32, ptr %11, align 4, !tbaa !17
  %52 = load ptr, ptr %10, align 8, !tbaa !13
  %53 = sext i32 %51 to i64
  %54 = getelementptr inbounds i8, ptr %52, i64 %53
  store ptr %54, ptr %10, align 8, !tbaa !13
  %55 = load ptr, ptr %10, align 8, !tbaa !13
  %56 = load ptr, ptr %7, align 8, !tbaa !13
  %57 = load ptr, ptr %10, align 8, !tbaa !13
  %58 = ptrtoint ptr %56 to i64
  %59 = ptrtoint ptr %57 to i64
  %60 = sub i64 %58, %59
  %61 = and i64 %60, -2
  %62 = getelementptr inbounds i8, ptr %55, i64 %61
  store ptr %62, ptr %5, align 8
  store i32 1, ptr %12, align 4
  br label %63

63:                                               ; preds = %50, %48, %16
  call void @llvm.lifetime.end.p0(i64 4, ptr %11) #4
  call void @llvm.lifetime.end.p0(i64 8, ptr %10) #4
  %64 = load ptr, ptr %5, align 8
  ret ptr %64
}