; Function Attrs: nofree norecurse nosync nounwind sspstrong memory(argmem: read) uwtable
define internal ptr @left_adjust_char_head(ptr noundef readnone captures(address) %0, ptr noundef %1, ptr noundef readnone captures(address) %2, ptr readnone captures(none) %3) #3 {
  %.not = icmp ugt ptr %1, %0
  br i1 %.not, label %.preheader, label %60

.preheader:                                       ; preds = %4, %.preheader
  %.020 = phi ptr [ %10, %.preheader ], [ %1, %4 ]
  %5 = load i8, ptr %.020, align 1, !tbaa !6
  %6 = add i8 %5, 95
  %7 = icmp ult i8 %6, 94
  %8 = icmp ugt ptr %.020, %0
  %9 = and i1 %8, %7
  %10 = getelementptr inbounds i8, ptr %.020, i64 -1
  br i1 %9, label %.preheader, label %11, !llvm.loop !26

11:                                               ; preds = %.preheader
  %12 = getelementptr inbounds nuw i8, ptr %.020, i64 1
  %13 = zext i8 %5 to i64
  %14 = getelementptr inbounds nuw [256 x i8], ptr @trans, i64 0, i64 %13
  %15 = load i8, ptr %14, align 1, !tbaa !6
  %16 = sext i8 %15 to i64
  %17 = icmp slt i8 %15, 0
  br i1 %17, label %18, label %21

18:                                               ; preds = %11
  %19 = icmp eq i8 %15, -1
  %20 = select i1 %19, i32 1, i32 -1
  br label %mbc_enc_len.exit

21:                                               ; preds = %11
  %22 = icmp eq ptr %12, %2
  br i1 %22, label %23, label %27

23:                                               ; preds = %21
  %24 = getelementptr inbounds nuw [256 x i32], ptr @EncLen_EUCJP, i64 0, i64 %13
  %25 = load i32, ptr %24, align 4, !tbaa !9
  %26 = sub nsw i32 0, %25
  br label %mbc_enc_len.exit

27:                                               ; preds = %21
  %28 = getelementptr inbounds nuw i8, ptr %.020, i64 2
  %29 = load i8, ptr %12, align 1, !tbaa !6
  %30 = zext i8 %29 to i64
  %31 = getelementptr inbounds nuw [3 x [256 x i8]], ptr @trans, i64 0, i64 %16, i64 %30
  %32 = load i8, ptr %31, align 1, !tbaa !6
  %33 = sext i8 %32 to i64
  %34 = icmp slt i8 %32, 0
  br i1 %34, label %35, label %38

35:                                               ; preds = %27
  %36 = icmp eq i8 %32, -1
  %37 = select i1 %36, i32 2, i32 -1
  br label %mbc_enc_len.exit

38:                                               ; preds = %27
  %39 = icmp eq ptr %28, %2
  br i1 %39, label %40, label %44

40:                                               ; preds = %38
  %41 = getelementptr inbounds nuw [256 x i32], ptr @EncLen_EUCJP, i64 0, i64 %13
  %42 = load i32, ptr %41, align 4, !tbaa !9
  %43 = sub nsw i32 1, %42
  br label %mbc_enc_len.exit

44:                                               ; preds = %38
  %45 = load i8, ptr %28, align 1, !tbaa !6
  %46 = zext i8 %45 to i64
  %47 = getelementptr inbounds nuw [3 x [256 x i8]], ptr @trans, i64 0, i64 %33, i64 %46
  %48 = load i8, ptr %47, align 1, !tbaa !6
  %49 = icmp eq i8 %48, -1
  %50 = select i1 %49, i32 3, i32 -1
  br label %mbc_enc_len.exit

mbc_enc_len.exit:                                 ; preds = %18, %23, %35, %40, %44
  %.0.i = phi i32 [ %20, %18 ], [ %26, %23 ], [ %37, %35 ], [ %43, %40 ], [ %50, %44 ]
  %51 = sext i32 %.0.i to i64
  %52 = getelementptr inbounds i8, ptr %.020, i64 %51
  %53 = icmp ugt ptr %52, %1
  br i1 %53, label %60, label %54

54:                                               ; preds = %mbc_enc_len.exit
  %55 = ptrtoint ptr %1 to i64
  %56 = ptrtoint ptr %52 to i64
  %57 = sub i64 %55, %56
  %58 = and i64 %57, -2
  %59 = getelementptr inbounds i8, ptr %52, i64 %58
  br label %60

60:                                               ; preds = %mbc_enc_len.exit, %4, %54
  %.0 = phi ptr [ %59, %54 ], [ %1, %4 ], [ %.020, %mbc_enc_len.exit ]
  ret ptr %.0
}